(iANN
AnnGraph
p0
(dp1
S'listOfNodes'
p2
(lp3
(iANN
Node
p4
(dp5
S'bottom'
p6
(lp7
(dp8
S'node'
p9
I0
sS'weight'
p10
(iANN
Rational
p11
(dp12
S'initialized'
p13
I01
sS'denominator'
p14
I48440
sS'numerator'
p15
I45424
sbsa(dp16
g9
I1
sg10
(iANN
Rational
p17
(dp18
g13
I01
sg14
I3015
sg15
I2364
sbsa(dp19
g9
I5
sg10
(iANN
Rational
p20
(dp21
g13
I01
sg14
I650
sg15
I370
sbsa(dp22
g9
I3
sg10
(iANN
Rational
p23
(dp24
g13
I01
sg14
I279
sg15
I192
sbsa(dp25
g9
I2
sg10
(iANN
Rational
p26
(dp27
g13
I01
sg14
I86
sg15
I30
sbsa(dp28
g9
I4
sg10
(iANN
Rational
p29
(dp30
g13
I01
sg14
I55
sg15
I50
sbsa(dp31
g9
I8
sg10
(iANN
Rational
p32
(dp33
g13
I01
sg14
I4
sg15
I0
sbsa(dp34
g9
I7
sg10
(iANN
Rational
p35
(dp36
g13
I01
sg14
I3
sg15
I2
sbsasS'top'
p37
(lp38
(dp39
g9
I0
sg10
(iANN
Rational
p40
(dp41
g13
I01
sg14
I48317
sg15
I45424
sbsa(dp42
g9
I1
sg10
(iANN
Rational
p43
(dp44
g13
I01
sg14
I2892
sg15
I2590
sbsa(dp45
g9
I5
sg10
(iANN
Rational
p46
(dp47
g13
I01
sg14
I301
sg15
I120
sbsa(dp48
g9
I2
sg10
(iANN
Rational
p49
(dp50
g13
I01
sg14
I180
sg15
I27
sbsa(dp51
g9
I4
sg10
(iANN
Rational
p52
(dp53
g13
I01
sg14
I152
sg15
I22
sbsa(dp54
g9
I3
sg10
(iANN
Rational
p55
(dp56
g13
I01
sg14
I129
sg15
I124
sbsa(dp57
g9
I8
sg10
(iANN
Rational
p58
(dp59
g13
I01
sg14
I4
sg15
I1
sbsa(dp60
g9
I7
sg10
(iANN
Rational
p61
(dp62
g13
I01
sg14
I2
sg15
I1
sbsasS'right'
p63
(lp64
(dp65
g9
I0
sg10
(iANN
Rational
p66
(dp67
g13
I01
sg14
I48206
sg15
I45233
sbsa(dp68
g9
I1
sg10
(iANN
Rational
p69
(dp70
g13
I01
sg14
I2972
sg15
I2660
sbsa(dp71
g9
I3
sg10
(iANN
Rational
p72
(dp73
g13
I01
sg14
I311
sg15
I119
sbsa(dp74
g9
I4
sg10
(iANN
Rational
p75
(dp76
g13
I01
sg14
I191
sg15
I38
sbsa(dp77
g9
I2
sg10
(iANN
Rational
p78
(dp79
g13
I01
sg14
I152
sg15
I25
sbsa(dp80
g9
I5
sg10
(iANN
Rational
p81
(dp82
g13
I01
sg14
I126
sg15
I125
sbsasS'pixel'
p83
I0
sS'left'
p84
(lp85
(dp86
g9
I0
sg10
(iANN
Rational
p87
(dp88
g13
I01
sg14
I48033
sg15
I45233
sbsa(dp89
g9
I1
sg10
(iANN
Rational
p90
(dp91
g13
I01
sg14
I2799
sg15
I2285
sbsa(dp92
g9
I4
sg10
(iANN
Rational
p93
(dp94
g13
I01
sg14
I513
sg15
I50
sbsa(dp95
g9
I5
sg10
(iANN
Rational
p96
(dp97
g13
I01
sg14
I462
sg15
I223
sbsa(dp98
g9
I2
sg10
(iANN
Rational
p99
(dp100
g13
I01
sg14
I238
sg15
I40
sbsa(dp101
g9
I3
sg10
(iANN
Rational
p102
(dp103
g13
I01
sg14
I197
sg15
I195
sbsa(dp104
g9
I6
sg10
(iANN
Rational
p105
(dp106
g13
I01
sg14
I1
sg15
I0
sbsasba(iANN
Node
p107
(dp108
g6
(lp109
(dp110
g9
I0
sg10
(iANN
Rational
p111
(dp112
g13
I01
sg14
I82078
sg15
I2590
sbsa(dp113
g9
I1
sg10
(iANN
Rational
p114
(dp115
g13
I01
sg14
I79487
sg15
I75638
sbsa(dp116
g9
I3
sg10
(iANN
Rational
p117
(dp118
g13
I01
sg14
I3848
sg15
I3126
sbsa(dp119
g9
I4
sg10
(iANN
Rational
p120
(dp121
g13
I01
sg14
I721
sg15
I356
sbsa(dp122
g9
I5
sg10
(iANN
Rational
p123
(dp124
g13
I01
sg14
I364
sg15
I356
sbsa(dp125
g9
I2
sg10
(iANN
Rational
p126
(dp127
g13
I01
sg14
I7
sg15
I6
sbsasg37
(lp128
(dp129
g9
I1
sg10
(iANN
Rational
p130
(dp131
g13
I01
sg14
I81814
sg15
I75638
sbsa(dp132
g9
I0
sg10
(iANN
Rational
p133
(dp134
g13
I01
sg14
I6175
sg15
I2364
sbsa(dp135
g9
I5
sg10
(iANN
Rational
p136
(dp137
g13
I01
sg14
I3810
sg15
I230
sbsa(dp138
g9
I3
sg10
(iANN
Rational
p139
(dp140
g13
I01
sg14
I3579
sg15
I3318
sbsa(dp141
g9
I4
sg10
(iANN
Rational
p142
(dp143
g13
I01
sg14
I260
sg15
I252
sbsa(dp144
g9
I2
sg10
(iANN
Rational
p145
(dp146
g13
I01
sg14
I7
sg15
I6
sbsasg63
(lp147
(dp148
g9
I1
sg10
(iANN
Rational
p149
(dp150
g13
I01
sg14
I81808
sg15
I75758
sbsa(dp151
g9
I0
sg10
(iANN
Rational
p152
(dp153
g13
I01
sg14
I6049
sg15
I2285
sbsa(dp154
g9
I3
sg10
(iANN
Rational
p155
(dp156
g13
I01
sg14
I3763
sg15
I3235
sbsa(dp157
g9
I4
sg10
(iANN
Rational
p158
(dp159
g13
I01
sg14
I527
sg15
I281
sbsa(dp160
g9
I5
sg10
(iANN
Rational
p161
(dp162
g13
I01
sg14
I245
sg15
I240
sbsa(dp163
g9
I2
sg10
(iANN
Rational
p164
(dp165
g13
I01
sg14
I4
sg15
I3
sbsasg83
I1
sg84
(lp166
(dp167
g9
I0
sg10
(iANN
Rational
p168
(dp169
g13
I01
sg14
I81894
sg15
I2660
sbsa(dp170
g9
I1
sg10
(iANN
Rational
p171
(dp172
g13
I01
sg14
I79233
sg15
I75758
sbsa(dp173
g9
I3
sg10
(iANN
Rational
p174
(dp175
g13
I01
sg14
I3474
sg15
I2886
sbsa(dp176
g9
I4
sg10
(iANN
Rational
p177
(dp178
g13
I01
sg14
I587
sg15
I236
sbsa(dp179
g9
I5
sg10
(iANN
Rational
p180
(dp181
g13
I01
sg14
I350
sg15
I327
sbsa(dp182
g9
I2
sg10
(iANN
Rational
p183
(dp184
g13
I01
sg14
I22
sg15
I21
sbsasba(iANN
Node
p185
(dp186
g6
(lp187
(dp188
g9
I3
sg10
(iANN
Rational
p189
(dp190
g13
I01
sg14
I90754
sg15
I83856
sbsa(dp191
g9
I5
sg10
(iANN
Rational
p192
(dp193
g13
I01
sg14
I6897
sg15
I3404
sbsa(dp194
g9
I1
sg10
(iANN
Rational
p195
(dp196
g13
I01
sg14
I3492
sg15
I3318
sbsa(dp197
g9
I0
sg10
(iANN
Rational
p198
(dp199
g13
I01
sg14
I173
sg15
I124
sbsa(dp200
g9
I2
sg10
(iANN
Rational
p201
(dp202
g13
I01
sg14
I48
sg15
I8
sbsa(dp203
g9
I4
sg10
(iANN
Rational
p204
(dp205
g13
I01
sg14
I39
sg15
I38
sbsasg37
(lp206
(dp207
g9
I3
sg10
(iANN
Rational
p208
(dp209
g13
I01
sg14
I90617
sg15
I83856
sbsa(dp210
g9
I1
sg10
(iANN
Rational
p211
(dp212
g13
I01
sg14
I6760
sg15
I3126
sbsa(dp213
g9
I0
sg10
(iANN
Rational
p214
(dp215
g13
I01
sg14
I3633
sg15
I192
sbsa(dp216
g9
I5
sg10
(iANN
Rational
p217
(dp218
g13
I01
sg14
I3440
sg15
I3335
sbsa(dp219
g9
I4
sg10
(iANN
Rational
p220
(dp221
g13
I01
sg14
I104
sg15
I94
sbsa(dp222
g9
I2
sg10
(iANN
Rational
p223
(dp224
g13
I01
sg14
I9
sg15
I8
sbsasg63
(lp225
(dp226
g9
I3
sg10
(iANN
Rational
p227
(dp228
g13
I01
sg14
I90707
sg15
I84435
sbsa(dp229
g9
I1
sg10
(iANN
Rational
p230
(dp231
g13
I01
sg14
I6271
sg15
I2886
sbsa(dp232
g9
I5
sg10
(iANN
Rational
p233
(dp234
g13
I01
sg14
I3384
sg15
I3078
sbsa(dp235
g9
I4
sg10
(iANN
Rational
p236
(dp237
g13
I01
sg14
I305
sg15
I81
sbsa(dp238
g9
I2
sg10
(iANN
Rational
p239
(dp240
g13
I01
sg14
I223
sg15
I25
sbsa(dp241
g9
I0
sg10
(iANN
Rational
p242
(dp243
g13
I01
sg14
I197
sg15
I195
sbsa(dp244
g9
I6
sg10
(iANN
Rational
p245
(dp246
g13
I01
sg14
I1
sg15
I0
sbsasg83
I3
sg84
(lp247
(dp248
g9
I1
sg10
(iANN
Rational
p249
(dp250
g13
I01
sg14
I90754
sg15
I3235
sbsa(dp251
g9
I3
sg10
(iANN
Rational
p252
(dp253
g13
I01
sg14
I87518
sg15
I84435
sbsa(dp254
g9
I5
sg10
(iANN
Rational
p255
(dp256
g13
I01
sg14
I3082
sg15
I2901
sbsa(dp257
g9
I4
sg10
(iANN
Rational
p258
(dp259
g13
I01
sg14
I180
sg15
I55
sbsa(dp260
g9
I0
sg10
(iANN
Rational
p261
(dp262
g13
I01
sg14
I124
sg15
I119
sbsa(dp263
g9
I2
sg10
(iANN
Rational
p264
(dp265
g13
I01
sg14
I4
sg15
I3
sbsasba(iANN
Node
p266
(dp267
g6
(lp268
(dp269
g9
I4
sg10
(iANN
Rational
p270
(dp271
g13
I01
sg14
I1511
sg15
I958
sbsa(dp272
g9
I5
sg10
(iANN
Rational
p273
(dp274
g13
I01
sg14
I552
sg15
I179
sbsa(dp275
g9
I2
sg10
(iANN
Rational
p276
(dp277
g13
I01
sg14
I372
sg15
I0
sbsa(dp278
g9
I0
sg10
(iANN
Rational
p279
(dp280
g13
I01
sg14
I371
sg15
I22
sbsa(dp281
g9
I3
sg10
(iANN
Rational
p282
(dp283
g13
I01
sg14
I348
sg15
I94
sbsa(dp284
g9
I1
sg10
(iANN
Rational
p285
(dp286
g13
I01
sg14
I253
sg15
I252
sbsasg37
(lp287
(dp288
g9
I4
sg10
(iANN
Rational
p289
(dp290
g13
I01
sg14
I1456
sg15
I958
sbsa(dp291
g9
I1
sg10
(iANN
Rational
p292
(dp293
g13
I01
sg14
I497
sg15
I356
sbsa(dp294
g9
I5
sg10
(iANN
Rational
p295
(dp296
g13
I01
sg14
I140
sg15
I48
sbsa(dp297
g9
I0
sg10
(iANN
Rational
p298
(dp299
g13
I01
sg14
I91
sg15
I50
sbsa(dp300
g9
I3
sg10
(iANN
Rational
p301
(dp302
g13
I01
sg14
I40
sg15
I38
sbsa(dp303
g9
I2
sg10
(iANN
Rational
p304
(dp305
g13
I01
sg14
I1
sg15
I0
sbsasg63
(lp306
(dp307
g9
I4
sg10
(iANN
Rational
p308
(dp309
g13
I01
sg14
I1467
sg15
I1005
sbsa(dp310
g9
I1
sg10
(iANN
Rational
p311
(dp312
g13
I01
sg14
I461
sg15
I236
sbsa(dp313
g9
I5
sg10
(iANN
Rational
p314
(dp315
g13
I01
sg14
I224
sg15
I114
sbsa(dp316
g9
I3
sg10
(iANN
Rational
p317
(dp318
g13
I01
sg14
I109
sg15
I55
sbsa(dp319
g9
I0
sg10
(iANN
Rational
p320
(dp321
g13
I01
sg14
I53
sg15
I50
sbsa(dp322
g9
I2
sg10
(iANN
Rational
p323
(dp324
g13
I01
sg14
I2
sg15
I1
sbsasg83
I4
sg84
(lp325
(dp326
g9
I1
sg10
(iANN
Rational
p327
(dp328
g13
I01
sg14
I1511
sg15
I281
sbsa(dp329
g9
I4
sg10
(iANN
Rational
p330
(dp331
g13
I01
sg14
I1229
sg15
I1005
sbsa(dp332
g9
I3
sg10
(iANN
Rational
p333
(dp334
g13
I01
sg14
I223
sg15
I81
sbsa(dp335
g9
I5
sg10
(iANN
Rational
p336
(dp337
g13
I01
sg14
I141
sg15
I100
sbsa(dp338
g9
I0
sg10
(iANN
Rational
p339
(dp340
g13
I01
sg14
I40
sg15
I38
sbsa(dp341
g9
I2
sg10
(iANN
Rational
p342
(dp343
g13
I01
sg14
I1
sg15
I0
sbsasba(iANN
Node
p344
(dp345
g6
(lp346
(dp347
g9
I5
sg10
(iANN
Rational
p348
(dp349
g13
I01
sg14
I48988
sg15
I43717
sbsa(dp350
g9
I0
sg10
(iANN
Rational
p351
(dp352
g13
I01
sg14
I5270
sg15
I120
sbsa(dp353
g9
I6
sg10
(iANN
Rational
p354
(dp355
g13
I01
sg14
I5149
sg15
I1470
sbsa(dp356
g9
I1
sg10
(iANN
Rational
p357
(dp358
g13
I01
sg14
I3678
sg15
I230
sbsa(dp359
g9
I3
sg10
(iANN
Rational
p360
(dp361
g13
I01
sg14
I3447
sg15
I3335
sbsa(dp362
g9
I4
sg10
(iANN
Rational
p363
(dp364
g13
I01
sg14
I111
sg15
I48
sbsa(dp365
g9
I7
sg10
(iANN
Rational
p366
(dp367
g13
I01
sg14
I62
sg15
I33
sbsa(dp368
g9
I2
sg10
(iANN
Rational
p369
(dp370
g13
I01
sg14
I28
sg15
I24
sbsa(dp371
g9
I9
sg10
(iANN
Rational
p372
(dp373
g13
I01
sg14
I3
sg15
I2
sbsasg37
(lp374
(dp375
g9
I3
sg10
(iANN
Rational
p376
(dp377
g13
I01
sg14
I48773
sg15
I3404
sbsa(dp378
g9
I5
sg10
(iANN
Rational
p379
(dp380
g13
I01
sg14
I45368
sg15
I43717
sbsa(dp381
g9
I4
sg10
(iANN
Rational
p382
(dp383
g13
I01
sg14
I1650
sg15
I179
sbsa(dp384
g9
I0
sg10
(iANN
Rational
p385
(dp386
g13
I01
sg14
I1470
sg15
I370
sbsa(dp387
g9
I1
sg10
(iANN
Rational
p388
(dp389
g13
I01
sg14
I1099
sg15
I356
sbsa(dp390
g9
I2
sg10
(iANN
Rational
p391
(dp392
g13
I01
sg14
I742
sg15
I33
sbsa(dp393
g9
I6
sg10
(iANN
Rational
p394
(dp395
g13
I01
sg14
I708
sg15
I691
sbsa(dp396
g9
I7
sg10
(iANN
Rational
p397
(dp398
g13
I01
sg14
I16
sg15
I14
sbsa(dp399
g9
I8
sg10
(iANN
Rational
p400
(dp401
g13
I01
sg14
I1
sg15
I0
sbsasg63
(lp402
(dp403
g9
I5
sg10
(iANN
Rational
p404
(dp405
g13
I01
sg14
I48951
sg15
I44332
sbsa(dp406
g9
I3
sg10
(iANN
Rational
p407
(dp408
g13
I01
sg14
I4618
sg15
I2901
sbsa(dp409
g9
I0
sg10
(iANN
Rational
p410
(dp411
g13
I01
sg14
I1716
sg15
I223
sbsa(dp412
g9
I4
sg10
(iANN
Rational
p413
(dp414
g13
I01
sg14
I1492
sg15
I100
sbsa(dp415
g9
I2
sg10
(iANN
Rational
p416
(dp417
g13
I01
sg14
I1391
sg15
I39
sbsa(dp418
g9
I1
sg10
(iANN
Rational
p419
(dp420
g13
I01
sg14
I1351
sg15
I327
sbsa(dp421
g9
I6
sg10
(iANN
Rational
p422
(dp423
g13
I01
sg14
I1023
sg15
I1017
sbsa(dp424
g9
I7
sg10
(iANN
Rational
p425
(dp426
g13
I01
sg14
I5
sg15
I2
sbsa(dp427
g9
I9
sg10
(iANN
Rational
p428
(dp429
g13
I01
sg14
I2
sg15
I0
sbsa(dp430
g9
I8
sg10
(iANN
Rational
p431
(dp432
g13
I01
sg14
I1
sg15
I0
sbsasg83
I5
sg84
(lp433
(dp434
g9
I3
sg10
(iANN
Rational
p435
(dp436
g13
I01
sg14
I48986
sg15
I3078
sbsa(dp437
g9
I5
sg10
(iANN
Rational
p438
(dp439
g13
I01
sg14
I45907
sg15
I44332
sbsa(dp440
g9
I4
sg10
(iANN
Rational
p441
(dp442
g13
I01
sg14
I1574
sg15
I114
sbsa(dp443
g9
I2
sg10
(iANN
Rational
p444
(dp445
g13
I01
sg14
I1459
sg15
I29
sbsa(dp446
g9
I1
sg10
(iANN
Rational
p447
(dp448
g13
I01
sg14
I1429
sg15
I240
sbsa(dp449
g9
I0
sg10
(iANN
Rational
p450
(dp451
g13
I01
sg14
I1188
sg15
I125
sbsa(dp452
g9
I6
sg10
(iANN
Rational
p453
(dp454
g13
I01
sg14
I1062
sg15
I1049
sbsa(dp455
g9
I7
sg10
(iANN
Rational
p456
(dp457
g13
I01
sg14
I12
sg15
I10
sbsa(dp458
g9
I8
sg10
(iANN
Rational
p459
(dp460
g13
I01
sg14
I1
sg15
I0
sbsasba(iANN
Node
p461
(dp462
g6
(lp463
(dp464
g9
I5
sg10
(iANN
Rational
p465
(dp466
g13
I01
sg14
I115
sg15
I33
sbsa(dp467
g9
I0
sg10
(iANN
Rational
p468
(dp469
g13
I01
sg14
I81
sg15
I27
sbsa(dp470
g9
I2
sg10
(iANN
Rational
p471
(dp472
g13
I01
sg14
I53
sg15
I35
sbsa(dp473
g9
I3
sg10
(iANN
Rational
p474
(dp475
g13
I01
sg14
I17
sg15
I8
sbsa(dp476
g9
I1
sg10
(iANN
Rational
p477
(dp478
g13
I01
sg14
I8
sg15
I6
sbsa(dp479
g9
I4
sg10
(iANN
Rational
p480
(dp481
g13
I01
sg14
I1
sg15
I0
sbsasg37
(lp482
(dp483
g9
I0
sg10
(iANN
Rational
p484
(dp485
g13
I01
sg14
I109
sg15
I30
sbsa(dp486
g9
I4
sg10
(iANN
Rational
p487
(dp488
g13
I01
sg14
I78
sg15
I0
sbsa(dp489
g9
I3
sg10
(iANN
Rational
p490
(dp491
g13
I01
sg14
I77
sg15
I8
sbsa(dp492
g9
I1
sg10
(iANN
Rational
p493
(dp494
g13
I01
sg14
I68
sg15
I6
sbsa(dp495
g9
I5
sg10
(iANN
Rational
p496
(dp497
g13
I01
sg14
I61
sg15
I24
sbsa(dp498
g9
I2
sg10
(iANN
Rational
p499
(dp500
g13
I01
sg14
I36
sg15
I35
sbsasg63
(lp501
(dp502
g9
I5
sg10
(iANN
Rational
p503
(dp504
g13
I01
sg14
I115
sg15
I29
sbsa(dp505
g9
I4
sg10
(iANN
Rational
p506
(dp507
g13
I01
sg14
I85
sg15
I0
sbsa(dp508
g9
I0
sg10
(iANN
Rational
p509
(dp510
g13
I01
sg14
I84
sg15
I40
sbsa(dp511
g9
I2
sg10
(iANN
Rational
p512
(dp513
g13
I01
sg14
I43
sg15
I16
sbsa(dp514
g9
I3
sg10
(iANN
Rational
p515
(dp516
g13
I01
sg14
I26
sg15
I3
sbsa(dp517
g9
I1
sg10
(iANN
Rational
p518
(dp519
g13
I01
sg14
I22
sg15
I21
sbsasg83
I2
sg84
(lp520
(dp521
g9
I5
sg10
(iANN
Rational
p522
(dp523
g13
I01
sg14
I115
sg15
I39
sbsa(dp524
g9
I4
sg10
(iANN
Rational
p525
(dp526
g13
I01
sg14
I75
sg15
I1
sbsa(dp527
g9
I0
sg10
(iANN
Rational
p528
(dp529
g13
I01
sg14
I73
sg15
I25
sbsa(dp530
g9
I3
sg10
(iANN
Rational
p531
(dp532
g13
I01
sg14
I47
sg15
I25
sbsa(dp533
g9
I2
sg10
(iANN
Rational
p534
(dp535
g13
I01
sg14
I21
sg15
I16
sbsa(dp536
g9
I1
sg10
(iANN
Rational
p537
(dp538
g13
I01
sg14
I4
sg15
I3
sbsasba(iANN
Node
p539
(dp540
g6
(lp541
(dp542
g9
I5
sg10
(iANN
Rational
p543
(dp544
g13
I01
sg14
I56458
sg15
I691
sbsa(dp545
g9
I6
sg10
(iANN
Rational
p546
(dp547
g13
I01
sg14
I55766
sg15
I50667
sbsa(dp548
g9
I7
sg10
(iANN
Rational
p549
(dp550
g13
I01
sg14
I5098
sg15
I4686
sbsa(dp551
g9
I8
sg10
(iANN
Rational
p552
(dp553
g13
I01
sg14
I411
sg15
I346
sbsa(dp554
g9
I9
sg10
(iANN
Rational
p555
(dp556
g13
I01
sg14
I64
sg15
I63
sbsasg37
(lp557
(dp558
g9
I5
sg10
(iANN
Rational
p559
(dp560
g13
I01
sg14
I56506
sg15
I1470
sbsa(dp561
g9
I6
sg10
(iANN
Rational
p562
(dp563
g13
I01
sg14
I55035
sg15
I50667
sbsa(dp564
g9
I7
sg10
(iANN
Rational
p565
(dp566
g13
I01
sg14
I4367
sg15
I4163
sbsa(dp567
g9
I8
sg10
(iANN
Rational
p568
(dp569
g13
I01
sg14
I203
sg15
I149
sbsa(dp570
g9
I9
sg10
(iANN
Rational
p571
(dp572
g13
I01
sg14
I53
sg15
I52
sbsasg63
(lp573
(dp574
g9
I5
sg10
(iANN
Rational
p575
(dp576
g13
I01
sg14
I56505
sg15
I1049
sbsa(dp577
g9
I6
sg10
(iANN
Rational
p578
(dp579
g13
I01
sg14
I55455
sg15
I50651
sbsa(dp580
g9
I7
sg10
(iANN
Rational
p581
(dp582
g13
I01
sg14
I4803
sg15
I4626
sbsa(dp583
g9
I8
sg10
(iANN
Rational
p584
(dp585
g13
I01
sg14
I176
sg15
I128
sbsa(dp586
g9
I9
sg10
(iANN
Rational
p587
(dp588
g13
I01
sg14
I47
sg15
I45
sbsa(dp589
g9
I0
sg10
(iANN
Rational
p590
(dp591
g13
I01
sg14
I1
sg15
I0
sbsasg83
I6
sg84
(lp592
(dp593
g9
I5
sg10
(iANN
Rational
p594
(dp595
g13
I01
sg14
I56505
sg15
I1017
sbsa(dp596
g9
I6
sg10
(iANN
Rational
p597
(dp598
g13
I01
sg14
I55487
sg15
I50651
sbsa(dp599
g9
I7
sg10
(iANN
Rational
p600
(dp601
g13
I01
sg14
I4835
sg15
I4578
sbsa(dp602
g9
I8
sg10
(iANN
Rational
p603
(dp604
g13
I01
sg14
I256
sg15
I213
sbsa(dp605
g9
I9
sg10
(iANN
Rational
p606
(dp607
g13
I01
sg14
I42
sg15
I40
sbsa(dp608
g9
I3
sg10
(iANN
Rational
p609
(dp610
g13
I01
sg14
I1
sg15
I0
sbsasba(iANN
Node
p611
(dp612
g6
(lp613
(dp614
g9
I6
sg10
(iANN
Rational
p615
(dp616
g13
I01
sg14
I51584
sg15
I4163
sbsa(dp617
g9
I7
sg10
(iANN
Rational
p618
(dp619
g13
I01
sg14
I47420
sg15
I39647
sbsa(dp620
g9
I8
sg10
(iANN
Rational
p621
(dp622
g13
I01
sg14
I7772
sg15
I6823
sbsa(dp623
g9
I9
sg10
(iANN
Rational
p624
(dp625
g13
I01
sg14
I948
sg15
I930
sbsa(dp626
g9
I5
sg10
(iANN
Rational
p627
(dp628
g13
I01
sg14
I17
sg15
I14
sbsa(dp629
g9
I0
sg10
(iANN
Rational
p630
(dp631
g13
I01
sg14
I2
sg15
I1
sbsasg37
(lp632
(dp633
g9
I5
sg10
(iANN
Rational
p634
(dp635
g13
I01
sg14
I51603
sg15
I33
sbsa(dp636
g9
I7
sg10
(iANN
Rational
p637
(dp638
g13
I01
sg14
I51569
sg15
I39647
sbsa(dp639
g9
I6
sg10
(iANN
Rational
p640
(dp641
g13
I01
sg14
I11921
sg15
I4686
sbsa(dp642
g9
I8
sg10
(iANN
Rational
p643
(dp644
g13
I01
sg14
I7234
sg15
I6417
sbsa(dp645
g9
I9
sg10
(iANN
Rational
p646
(dp647
g13
I01
sg14
I816
sg15
I812
sbsa(dp648
g9
I0
sg10
(iANN
Rational
p649
(dp650
g13
I01
sg14
I3
sg15
I2
sbsasg63
(lp651
(dp652
g9
I7
sg10
(iANN
Rational
p653
(dp654
g13
I01
sg14
I51602
sg15
I39142
sbsa(dp655
g9
I6
sg10
(iANN
Rational
p656
(dp657
g13
I01
sg14
I12459
sg15
I4578
sbsa(dp658
g9
I8
sg10
(iANN
Rational
p659
(dp660
g13
I01
sg14
I7880
sg15
I7196
sbsa(dp661
g9
I9
sg10
(iANN
Rational
p662
(dp663
g13
I01
sg14
I683
sg15
I671
sbsa(dp664
g9
I5
sg10
(iANN
Rational
p665
(dp666
g13
I01
sg14
I11
sg15
I10
sbsasg83
I7
sg84
(lp667
(dp668
g9
I6
sg10
(iANN
Rational
p669
(dp670
g13
I01
sg14
I51603
sg15
I4626
sbsa(dp671
g9
I7
sg10
(iANN
Rational
p672
(dp673
g13
I01
sg14
I46976
sg15
I39142
sbsa(dp674
g9
I8
sg10
(iANN
Rational
p675
(dp676
g13
I01
sg14
I7833
sg15
I7116
sbsa(dp677
g9
I9
sg10
(iANN
Rational
p678
(dp679
g13
I01
sg14
I716
sg15
I712
sbsa(dp680
g9
I5
sg10
(iANN
Rational
p681
(dp682
g13
I01
sg14
I3
sg15
I2
sbsasba(iANN
Node
p683
(dp684
g6
(lp685
(dp686
g9
I7
sg10
(iANN
Rational
p687
(dp688
g13
I01
sg14
I66304
sg15
I6417
sbsa(dp689
g9
I8
sg10
(iANN
Rational
p690
(dp691
g13
I01
sg14
I59886
sg15
I52282
sbsa(dp692
g9
I9
sg10
(iANN
Rational
p693
(dp694
g13
I01
sg14
I7603
sg15
I7449
sbsa(dp695
g9
I6
sg10
(iANN
Rational
p696
(dp697
g13
I01
sg14
I153
sg15
I149
sbsa(dp698
g9
I0
sg10
(iANN
Rational
p699
(dp700
g13
I01
sg14
I3
sg15
I1
sbsa(dp701
g9
I5
sg10
(iANN
Rational
p702
(dp703
g13
I01
sg14
I1
sg15
I0
sbsasg37
(lp704
(dp705
g9
I7
sg10
(iANN
Rational
p706
(dp707
g13
I01
sg14
I66866
sg15
I6823
sbsa(dp708
g9
I6
sg10
(iANN
Rational
p709
(dp710
g13
I01
sg14
I60042
sg15
I346
sbsa(dp711
g9
I8
sg10
(iANN
Rational
p712
(dp713
g13
I01
sg14
I59695
sg15
I52282
sbsa(dp714
g9
I9
sg10
(iANN
Rational
p715
(dp716
g13
I01
sg14
I7412
sg15
I7410
sbsa(dp717
g9
I0
sg10
(iANN
Rational
p718
(dp719
g13
I01
sg14
I1
sg15
I0
sbsasg63
(lp720
(dp721
g9
I7
sg10
(iANN
Rational
p722
(dp723
g13
I01
sg14
I66866
sg15
I7116
sbsa(dp724
g9
I8
sg10
(iANN
Rational
p725
(dp726
g13
I01
sg14
I59749
sg15
I51740
sbsa(dp727
g9
I9
sg10
(iANN
Rational
p728
(dp729
g13
I01
sg14
I8008
sg15
I7792
sbsa(dp730
g9
I6
sg10
(iANN
Rational
p731
(dp732
g13
I01
sg14
I215
sg15
I213
sbsa(dp733
g9
I5
sg10
(iANN
Rational
p734
(dp735
g13
I01
sg14
I1
sg15
I0
sbsasg83
I8
sg84
(lp736
(dp737
g9
I7
sg10
(iANN
Rational
p738
(dp739
g13
I01
sg14
I66861
sg15
I7196
sbsa(dp740
g9
I8
sg10
(iANN
Rational
p741
(dp742
g13
I01
sg14
I59664
sg15
I51740
sbsa(dp743
g9
I9
sg10
(iANN
Rational
p744
(dp745
g13
I01
sg14
I7923
sg15
I7792
sbsa(dp746
g9
I6
sg10
(iANN
Rational
p747
(dp748
g13
I01
sg14
I130
sg15
I128
sbsa(dp749
g9
I5
sg10
(iANN
Rational
p750
(dp751
g13
I01
sg14
I1
sg15
I0
sbsasba(iANN
Node
p752
(dp753
g6
(lp754
(dp755
g9
I9
sg10
(iANN
Rational
p756
(dp757
g13
I01
sg14
I60168
sg15
I51890
sbsa(dp758
g9
I8
sg10
(iANN
Rational
p759
(dp760
g13
I01
sg14
I8277
sg15
I7410
sbsa(dp761
g9
I7
sg10
(iANN
Rational
p762
(dp763
g13
I01
sg14
I866
sg15
I812
sbsa(dp764
g9
I6
sg10
(iANN
Rational
p765
(dp766
g13
I01
sg14
I53
sg15
I52
sbsasg37
(lp767
(dp768
g9
I7
sg10
(iANN
Rational
p769
(dp770
g13
I01
sg14
I60339
sg15
I930
sbsa(dp771
g9
I8
sg10
(iANN
Rational
p772
(dp773
g13
I01
sg14
I59408
sg15
I7449
sbsa(dp774
g9
I9
sg10
(iANN
Rational
p775
(dp776
g13
I01
sg14
I51958
sg15
I51890
sbsa(dp777
g9
I6
sg10
(iANN
Rational
p778
(dp779
g13
I01
sg14
I67
sg15
I63
sbsa(dp780
g9
I5
sg10
(iANN
Rational
p781
(dp782
g13
I01
sg14
I3
sg15
I2
sbsasg63
(lp783
(dp784
g9
I8
sg10
(iANN
Rational
p785
(dp786
g13
I01
sg14
I60339
sg15
I7792
sbsa(dp787
g9
I9
sg10
(iANN
Rational
p788
(dp789
g13
I01
sg14
I52546
sg15
I51791
sbsa(dp790
g9
I7
sg10
(iANN
Rational
p791
(dp792
g13
I01
sg14
I754
sg15
I712
sbsa(dp793
g9
I6
sg10
(iANN
Rational
p794
(dp795
g13
I01
sg14
I41
sg15
I40
sbsasg83
I9
sg84
(lp796
(dp797
g9
I8
sg10
(iANN
Rational
p798
(dp799
g13
I01
sg14
I60304
sg15
I7792
sbsa(dp800
g9
I9
sg10
(iANN
Rational
p801
(dp802
g13
I01
sg14
I52511
sg15
I51791
sbsa(dp803
g9
I7
sg10
(iANN
Rational
p804
(dp805
g13
I01
sg14
I719
sg15
I671
sbsa(dp806
g9
I6
sg10
(iANN
Rational
p807
(dp808
g13
I01
sg14
I47
sg15
I45
sbsa(dp809
g9
I5
sg10
(iANN
Rational
p810
(dp811
g13
I01
sg14
I1
sg15
I0
sbsasbasS'palette'
p812
ccopy_reg
_reconstructor
p813
(cPIL.ImagePalette
ImagePalette
p814
c__builtin__
object
p815
Ntp816
Rp817
(dp818
S'rawmode'
p819
Nsg812
S'\xf5\xf5\xf3\xf4\xf3\xf1\xf5\xf2\xf2\xf3\xf2\xf0\xf2\xf2\xf0\xf2\xf1\xef\xd4\xbf\xb1\x96zjE95\x1b\x15\x13\x00\x00\x00\x00\x00\x00\x00\x00\x00\x00\x00\x00\x00\x00\x00\x00\x00\x00\x00\x00\x00\x00\x00\x00\x00\x00\x00\x00\x00\x00\x00\x00\x00\x00\x00\x00\x00\x00\x00\x00\x00\x00\x00\x00\x00\x00\x00\x00\x00\x00\x00\x00\x00\x00\x00\x00\x00\x00\x00\x00\x00\x00\x00\x00\x00\x00\x00\x00\x00\x00\x00\x00\x00\x00\x00\x00\x00\x00\x00\x00\x00\x00\x00\x00\x00\x00\x00\x00\x00\x00\x00\x00\x00\x00\x00\x00\x00\x00\x00\x00\x00\x00\x00\x00\x00\x00\x00\x00\x00\x00\x00\x00\x00\x00\x00\x00\x00\x00\x00\x00\x00\x00\x00\x00\x00\x00\x00\x00\x00\x00\x00\x00\x00\x00\x00\x00\x00\x00\x00\x00\x00\x00\x00\x00\x00\x00\x00\x00\x00\x00\x00\x00\x00\x00\x00\x00\x00\x00\x00\x00\x00\x00\x00\x00\x00\x00\x00\x00\x00\x00\x00\x00\x00\x00\x00\x00\x00\x00\x00\x00\x00\x00\x00\x00\x00\x00\x00\x00\x00\x00\x00\x00\x00\x00\x00\x00\x00\x00\x00\x00\x00\x00\x00\x00\x00\x00\x00\x00\x00\x00\x00\x00\x00\x00\x00\x00\x00\x00\x00\x00\x00\x00\x00\x00\x00\x00\x00\x00\x00\x00\x00\x00\x00\x00\x00\x00\x00\x00\x00\x00\x00\x00\x00\x00\x00\x00\x00\x00\x00\x00\x00\x00\x00\x00\x00\x00\x00\x00\x00\x00\x00\x00\x00\x00\x00\x00\x00\x00\x00\x00\x00\x00\x00\x00\x00\x00\x00\x00\x00\x00\x00\x00\x00\x00\x00\x00\x00\x00\x00\x00\x00\x00\x00\x00\x00\x00\x00\x00\x00\x00\x00\x00\x00\x00\x00\x00\x00\x00\x00\x00\x00\x00\x00\x00\x00\x00\x00\x00\x00\x00\x00\x00\x00\x00\x00\x00\x00\x00\x00\x00\x00\x00\x00\x00\x00\x00\x00\x00\x00\x00\x00\x00\x00\x00\x00\x00\x00\x00\x00\x00\x00\x00\x00\x00\x00\x00\x00\x00\x00\x00\x00\x00\x00\x00\x00\x00\x00\x00\x00\x00\x00\x00\x00\x00\x00\x00\x00\x00\x00\x00\x00\x00\x00\x00\x00\x00\x00\x00\x00\x00\x00\x00\x00\x00\x00\x00\x00\x00\x00\x00\x00\x00\x00\x00\x00\x00\x00\x00\x00\x00\x00\x00\x00\x00\x00\x00\x00\x00\x00\x00\x00\x00\x00\x00\x00\x00\x00\x00\x00\x00\x00\x00\x00\x00\x00\x00\x00\x00\x00\x00\x00\x00\x00\x00\x00\x00\x00\x00\x00\x00\x00\x00\x00\x00\x00\x00\x00\x00\x00\x00\x00\x00\x00\x00\x00\x00\x00\x00\x00\x00\x00\x00\x00\x00\x00\x00\x00\x00\x00\x00\x00\x00\x00\x00\x00\x00\x00\x00\x00\x00\x00\x00\x00\x00\x00\x00\x00\x00\x00\x00\x00\x00\x00\x00\x00\x00\x00\x00\x00\x00\x00\x00\x00\x00\x00\x00\x00\x00\x00\x00\x00\x00\x00\x00\x00\x00\x00\x00\x00\x00\x00\x00\x00\x00\x00\x00\x00\x00\x00\x00\x00\x00\x00\x00\x00\x00\x00\x00\x00\x00\x00\x00\x00\x00\x00\x00\x00\x00\x00\x00\x00\x00\x00\x00\x00\x00\x00\x00\x00\x00\x00\x00\x00\x00\x00\x00\x00\x00\x00\x00\x00\x00\x00\x00\x00\x00\x00\x00\x00\x00\x00\x00\x00\x00\x00\x00\x00\x00\x00\x00\x00\x00\x00\x00\x00\x00\x00\x00\x00\x00\x00\x00\x00\x00\x00\x00\x00\x00\x00\x00\x00\x00\x00\x00\x00\x00\x00\x00\x00\x00\x00\x00\x00\x00\x00\x00\x00\x00\x00\x00\x00\x00\x00\x00\x00\x00\x00\x00\x00\x00\x00\x00\x00\x00\x00\x00\x00\x00\x00\x00\x00\x00\x00\x00\x00\x00\x00\x00\x00\x00\x00\x00\x00\x00\x00\x00\x00\x00\x00\x00\x00\x00\x00\x00\x00\x00\x00\x00\x00\x00\x00\x00\x00\x00\x00\x00\x00\x00\x00\x00\x00\x00\x00\x00\x00\x00\x00\x00\x00\x00\x00\x00\x00\x00\x00\x00\x00\x00\x00\x00\x00\x00\x00\x00\x00\x00\x00\x00\x00\x00\x00\x00\x00\x00\x00\x00\x00\x00'
p820
sS'colors'
p821
(dp822
sS'mode'
p823
S'RGB'
p824
sS'dirty'
p825
I0
sbsS'colorList'
p826
(lp827
sb.